; Function Attrs: nounwind uwtable
define void @_ZTv0_n24_N14duckdb_parquet16DataPageHeaderV2D1Ev(ptr noundef captures(address) %0) unnamed_addr #5 align 2 personality ptr @__gxx_personality_v0 {
  %2 = load ptr, ptr %0, align 8, !tbaa !22
  %3 = getelementptr inbounds i8, ptr %2, i64 -24
  %4 = load i64, ptr %3, align 8
  %5 = getelementptr inbounds i8, ptr %0, i64 %4
  store ptr getelementptr inbounds nuw inrange(-48, 40) (i8, ptr @_ZTVN14duckdb_parquet16DataPageHeaderV2E, i64 48), ptr %5, align 8, !tbaa !22
  %6 = getelementptr inbounds nuw i8, ptr %5, i64 40
  store ptr getelementptr inbounds nuw inrange(-48, 40) (i8, ptr @_ZTVN14duckdb_parquet10StatisticsE, i64 48), ptr %6, align 8, !tbaa !22
  %7 = getelementptr inbounds nuw i8, ptr %5, i64 160
  %8 = load ptr, ptr %7, align 8, !tbaa !36
  %9 = getelementptr inbounds nuw i8, ptr %5, i64 176
  %10 = icmp eq ptr %8, %9
  br i1 %10, label %_ZNKSt7__cxx1112basic_stringIcSt11char_traitsIcESaIcEE11_M_is_localEv.exit.thread.i.i.i.i.i.i, label %_ZNKSt7__cxx1112basic_stringIcSt11char_traitsIcESaIcEE11_M_is_localEv.exit.i.i.i.i.i.i

_ZNKSt7__cxx1112basic_stringIcSt11char_traitsIcESaIcEE11_M_is_localEv.exit.thread.i.i.i.i.i.i: ; preds = %1
  %11 = getelementptr inbounds nuw i8, ptr %5, i64 168
  %12 = load i64, ptr %11, align 8, !tbaa !39
  %13 = icmp ult i64 %12, 16
  tail call void @llvm.assume(i1 %13)
  br label %_ZNSt7__cxx1112basic_stringIcSt11char_traitsIcESaIcEED2Ev.exit.i.i.i.i

_ZNKSt7__cxx1112basic_stringIcSt11char_traitsIcESaIcEE11_M_is_localEv.exit.i.i.i.i.i.i: ; preds = %1
  tail call void @_ZdlPv(ptr noundef %8) #28
  br label %_ZNSt7__cxx1112basic_stringIcSt11char_traitsIcESaIcEED2Ev.exit.i.i.i.i

_ZNSt7__cxx1112basic_stringIcSt11char_traitsIcESaIcEED2Ev.exit.i.i.i.i: ; preds = %_ZNKSt7__cxx1112basic_stringIcSt11char_traitsIcESaIcEE11_M_is_localEv.exit.i.i.i.i.i.i, %_ZNKSt7__cxx1112basic_stringIcSt11char_traitsIcESaIcEE11_M_is_localEv.exit.thread.i.i.i.i.i.i
  %14 = getelementptr inbounds nuw i8, ptr %5, i64 128
  %15 = load ptr, ptr %14, align 8, !tbaa !36
  %16 = getelementptr inbounds nuw i8, ptr %5, i64 144
  %17 = icmp eq ptr %15, %16
  br i1 %17, label %_ZNKSt7__cxx1112basic_stringIcSt11char_traitsIcESaIcEE11_M_is_localEv.exit.thread.i.i3.i.i.i.i, label %_ZNKSt7__cxx1112basic_stringIcSt11char_traitsIcESaIcEE11_M_is_localEv.exit.i.i2.i.i.i.i

_ZNKSt7__cxx1112basic_stringIcSt11char_traitsIcESaIcEE11_M_is_localEv.exit.thread.i.i3.i.i.i.i: ; preds = %_ZNSt7__cxx1112basic_stringIcSt11char_traitsIcESaIcEED2Ev.exit.i.i.i.i
  %18 = getelementptr inbounds nuw i8, ptr %5, i64 136
  %19 = load i64, ptr %18, align 8, !tbaa !39
  %20 = icmp ult i64 %19, 16
  tail call void @llvm.assume(i1 %20)
  br label %_ZNSt7__cxx1112basic_stringIcSt11char_traitsIcESaIcEED2Ev.exit4.i.i.i.i

_ZNKSt7__cxx1112basic_stringIcSt11char_traitsIcESaIcEE11_M_is_localEv.exit.i.i2.i.i.i.i: ; preds = %_ZNSt7__cxx1112basic_stringIcSt11char_traitsIcESaIcEED2Ev.exit.i.i.i.i
  tail call void @_ZdlPv(ptr noundef %15) #28
  br label %_ZNSt7__cxx1112basic_stringIcSt11char_traitsIcESaIcEED2Ev.exit4.i.i.i.i

_ZNSt7__cxx1112basic_stringIcSt11char_traitsIcESaIcEED2Ev.exit4.i.i.i.i: ; preds = %_ZNKSt7__cxx1112basic_stringIcSt11char_traitsIcESaIcEE11_M_is_localEv.exit.i.i2.i.i.i.i, %_ZNKSt7__cxx1112basic_stringIcSt11char_traitsIcESaIcEE11_M_is_localEv.exit.thread.i.i3.i.i.i.i
  %21 = getelementptr inbounds nuw i8, ptr %5, i64 80
  %22 = load ptr, ptr %21, align 8, !tbaa !36
  %23 = getelementptr inbounds nuw i8, ptr %5, i64 96
  %24 = icmp eq ptr %22, %23
  br i1 %24, label %_ZNKSt7__cxx1112basic_stringIcSt11char_traitsIcESaIcEE11_M_is_localEv.exit.thread.i.i6.i.i.i.i, label %_ZNKSt7__cxx1112basic_stringIcSt11char_traitsIcESaIcEE11_M_is_localEv.exit.i.i5.i.i.i.i

_ZNKSt7__cxx1112basic_stringIcSt11char_traitsIcESaIcEE11_M_is_localEv.exit.thread.i.i6.i.i.i.i: ; preds = %_ZNSt7__cxx1112basic_stringIcSt11char_traitsIcESaIcEED2Ev.exit4.i.i.i.i
  %25 = getelementptr inbounds nuw i8, ptr %5, i64 88
  %26 = load i64, ptr %25, align 8, !tbaa !39
  %27 = icmp ult i64 %26, 16
  tail call void @llvm.assume(i1 %27)
  br label %_ZNSt7__cxx1112basic_stringIcSt11char_traitsIcESaIcEED2Ev.exit7.i.i.i.i

_ZNKSt7__cxx1112basic_stringIcSt11char_traitsIcESaIcEE11_M_is_localEv.exit.i.i5.i.i.i.i: ; preds = %_ZNSt7__cxx1112basic_stringIcSt11char_traitsIcESaIcEED2Ev.exit4.i.i.i.i
  tail call void @_ZdlPv(ptr noundef %22) #28
  br label %_ZNSt7__cxx1112basic_stringIcSt11char_traitsIcESaIcEED2Ev.exit7.i.i.i.i

_ZNSt7__cxx1112basic_stringIcSt11char_traitsIcESaIcEED2Ev.exit7.i.i.i.i: ; preds = %_ZNKSt7__cxx1112basic_stringIcSt11char_traitsIcESaIcEE11_M_is_localEv.exit.i.i5.i.i.i.i, %_ZNKSt7__cxx1112basic_stringIcSt11char_traitsIcESaIcEE11_M_is_localEv.exit.thread.i.i6.i.i.i.i
  %28 = getelementptr inbounds nuw i8, ptr %5, i64 48
  %29 = load ptr, ptr %28, align 8, !tbaa !36
  %30 = getelementptr inbounds nuw i8, ptr %5, i64 64
  %31 = icmp eq ptr %29, %30
  br i1 %31, label %_ZNKSt7__cxx1112basic_stringIcSt11char_traitsIcESaIcEE11_M_is_localEv.exit.thread.i.i9.i.i.i.i, label %_ZNKSt7__cxx1112basic_stringIcSt11char_traitsIcESaIcEE11_M_is_localEv.exit.i.i8.i.i.i.i

_ZNKSt7__cxx1112basic_stringIcSt11char_traitsIcESaIcEE11_M_is_localEv.exit.thread.i.i9.i.i.i.i: ; preds = %_ZNSt7__cxx1112basic_stringIcSt11char_traitsIcESaIcEED2Ev.exit7.i.i.i.i
  %32 = getelementptr inbounds nuw i8, ptr %5, i64 56
  %33 = load i64, ptr %32, align 8, !tbaa !39
  %34 = icmp ult i64 %33, 16
  tail call void @llvm.assume(i1 %34)
  br label %_ZN14duckdb_parquet16DataPageHeaderV2D1Ev.exit

_ZNKSt7__cxx1112basic_stringIcSt11char_traitsIcESaIcEE11_M_is_localEv.exit.i.i8.i.i.i.i: ; preds = %_ZNSt7__cxx1112basic_stringIcSt11char_traitsIcESaIcEED2Ev.exit7.i.i.i.i
  tail call void @_ZdlPv(ptr noundef %29) #28
  br label %_ZN14duckdb_parquet16DataPageHeaderV2D1Ev.exit

_ZN14duckdb_parquet16DataPageHeaderV2D1Ev.exit:   ; preds = %_ZNKSt7__cxx1112basic_stringIcSt11char_traitsIcESaIcEE11_M_is_localEv.exit.thread.i.i9.i.i.i.i, %_ZNKSt7__cxx1112basic_stringIcSt11char_traitsIcESaIcEE11_M_is_localEv.exit.i.i8.i.i.i.i
  ret void
}